LIBRARY libsealdir
EXPORTS
    ??0unsupported@sealdir@@QAE@W4file_type@filesystem@std@@@Z  ; sealdir::unsupported::unsupported
    ?what@unsupported@sealdir@@UBEPBDXZ                         ; sealdir::unsupported::what
    ??1unsupported@sealdir@@UAE@XZ                              ; sealdir::unsupported::~unsupported
    ??0unsupported@sealdir@@QAE@ABV01@@Z                        ; sealdir::unsupported::unsupported
    ??_Gunsupported@sealdir@@UAEPAXI@Z                          ; sealdir::unsupported::`scalar deleting destructor'
    ?what@failed_algo@sealdir@@UBEPBDXZ                         ; sealdir::failed_algo::what
    ??0failed_algo@sealdir@@QAE@XZ                              ; sealdir::failed_algo::failed_algo
    ??1failed_algo@sealdir@@UAE@XZ                              ; sealdir::failed_algo::~failed_algo
    ??0failed_algo@sealdir@@QAE@ABV01@@Z                        ; sealdir::failed_algo::failed_algo
    ??_Gfailed_algo@sealdir@@UAEPAXI@Z                          ; sealdir::failed_algo::`scalar deleting destructor'
    ??0digest@sealdir@@QAE@AAV?$basic_string@DU?$char_traits@D@std@@V?$allocator@D@2@@std@@@Z
                                                                ; sealdir::digest::digest
    ??0digest@sealdir@@QAE@PAII@Z                               ; sealdir::digest::digest
    ??Hdigest@sealdir@@QAEAAU01@AAU01@@Z                        ; sealdir::digest::operator+
    ??Ydigest@sealdir@@QAEXAAU01@@Z                             ; sealdir::digest::operator+=
    ??8digest@sealdir@@QAE_NAAU01@@Z                            ; sealdir::digest::operator==
    ??9digest@sealdir@@QAE_NAAU01@@Z                            ; sealdir::digest::operator!=
    ??Odigest@sealdir@@QAE_NAAU01@@Z                            ; sealdir::digest::operator>
    ??Pdigest@sealdir@@QAE_NAAU01@@Z                            ; sealdir::digest::operator>=
    ??Mdigest@sealdir@@QAE_NAAU01@@Z                            ; sealdir::digest::operator<
    ??Ndigest@sealdir@@QAE_NAAU01@@Z                            ; sealdir::digest::operator<=
    ?read@digest@sealdir@@QAEXAAPAUgcry_md_handle@@@Z           ; sealdir::digest::read
    ?print@digest@sealdir@@QAEAAV?$basic_string@DU?$char_traits@D@std@@V?$allocator@D@2@@std@@XZ
                                                                ; sealdir::digest::print
    ??0tree@sealdir@@QAE@ABVpath@filesystem@std@@@Z             ; sealdir::tree::tree
    ??0tree@sealdir@@QAE@ABVdirectory_entry@filesystem@std@@@Z  ; sealdir::tree::tree
    ??0leaf@sealdir@@QAE@ABVpath@filesystem@std@@@Z             ; sealdir::leaf::leaf
    ??0leaf@sealdir@@QAE@ABVdirectory_entry@filesystem@std@@@Z  ; sealdir::leaf::leaf
    ??0leaf@sealdir@@QAE@ABV01@@Z                               ; sealdir::leaf::leaf
    ??0leaf@sealdir@@QAE@$$QAV01@@Z                             ; sealdir::leaf::leaf
    